; Function Attrs: mustprogress nounwind uwtable
define hidden void @_ZN15JNILocalsDumper6do_oopEPP7oopDesc(ptr nocapture noundef nonnull readonly align 8 dereferenceable(24) %0, ptr nocapture noundef readonly %1) unnamed_addr #3 align 2 {
  %3 = alloca i32, align 4
  %4 = alloca i32, align 4
  %5 = alloca i64, align 8
  %6 = load ptr, ptr %1, align 8
  %.not = icmp eq ptr %6, null
  br i1 %.not, label %69, label %7

7:                                                ; preds = %2
  %8 = getelementptr inbounds i8, ptr %0, i64 8
  %9 = load ptr, ptr %8, align 8
  tail call void @_ZN18AbstractDumpWriter16start_sub_recordEhj(ptr noundef nonnull align 8 dereferenceable(34) %9, i8 noundef zeroext 2, i32 noundef 17)
  %10 = load ptr, ptr %8, align 8
  %11 = ptrtoint ptr %6 to i64
  call void @llvm.lifetime.start.p0(i64 8, ptr nonnull %5)
  %12 = tail call noundef i64 @llvm.bswap.i64(i64 %11)
  store i64 %12, ptr %5, align 8
  %13 = getelementptr inbounds i8, ptr %10, i64 16
  %14 = load i64, ptr %13, align 8
  %15 = getelementptr inbounds i8, ptr %10, i64 24
  %16 = load i64, ptr %15, align 8
  %17 = sub i64 %14, %16
  %18 = icmp ugt i64 %17, 7
  br i1 %18, label %19, label %25

19:                                               ; preds = %7
  %20 = getelementptr inbounds i8, ptr %10, i64 8
  %21 = load ptr, ptr %20, align 8
  %22 = getelementptr inbounds i8, ptr %21, i64 %16
  store i64 %12, ptr %22, align 1
  %23 = load i64, ptr %15, align 8
  %24 = add i64 %23, 8
  store i64 %24, ptr %15, align 8
  br label %_ZN18AbstractDumpWriter14write_objectIDEP7oopDesc.exit

25:                                               ; preds = %7
  %26 = load ptr, ptr %10, align 8
  %27 = getelementptr inbounds i8, ptr %26, i64 16
  %28 = load ptr, ptr %27, align 8
  call void %28(ptr noundef nonnull align 8 dereferenceable(34) %10, ptr noundef nonnull %5, i64 noundef 8) #19
  br label %_ZN18AbstractDumpWriter14write_objectIDEP7oopDesc.exit

_ZN18AbstractDumpWriter14write_objectIDEP7oopDesc.exit: ; preds = %19, %25
  call void @llvm.lifetime.end.p0(i64 8, ptr nonnull %5)
  %29 = load ptr, ptr %8, align 8
  %30 = getelementptr inbounds i8, ptr %0, i64 16
  %31 = load i32, ptr %30, align 8
  call void @llvm.lifetime.start.p0(i64 4, ptr nonnull %4)
  %32 = call noundef i32 @llvm.bswap.i32(i32 %31)
  store i32 %32, ptr %4, align 4
  %33 = getelementptr inbounds i8, ptr %29, i64 16
  %34 = load i64, ptr %33, align 8
  %35 = getelementptr inbounds i8, ptr %29, i64 24
  %36 = load i64, ptr %35, align 8
  %37 = sub i64 %34, %36
  %38 = icmp ugt i64 %37, 3
  br i1 %38, label %39, label %45

39:                                               ; preds = %_ZN18AbstractDumpWriter14write_objectIDEP7oopDesc.exit
  %40 = getelementptr inbounds i8, ptr %29, i64 8
  %41 = load ptr, ptr %40, align 8
  %42 = getelementptr inbounds i8, ptr %41, i64 %36
  store i32 %32, ptr %42, align 1
  %43 = load i64, ptr %35, align 8
  %44 = add i64 %43, 4
  store i64 %44, ptr %35, align 8
  br label %_ZN18AbstractDumpWriter8write_u4Ej.exit

45:                                               ; preds = %_ZN18AbstractDumpWriter14write_objectIDEP7oopDesc.exit
  %46 = load ptr, ptr %29, align 8
  %47 = getelementptr inbounds i8, ptr %46, i64 16
  %48 = load ptr, ptr %47, align 8
  call void %48(ptr noundef nonnull align 8 dereferenceable(34) %29, ptr noundef nonnull %4, i64 noundef 4) #19
  br label %_ZN18AbstractDumpWriter8write_u4Ej.exit

_ZN18AbstractDumpWriter8write_u4Ej.exit:          ; preds = %39, %45
  call void @llvm.lifetime.end.p0(i64 4, ptr nonnull %4)
  %49 = load ptr, ptr %8, align 8
  %50 = getelementptr inbounds i8, ptr %0, i64 20
  %51 = load i32, ptr %50, align 4
  call void @llvm.lifetime.start.p0(i64 4, ptr nonnull %3)
  %52 = call noundef i32 @llvm.bswap.i32(i32 %51)
  store i32 %52, ptr %3, align 4
  %53 = getelementptr inbounds i8, ptr %49, i64 16
  %54 = load i64, ptr %53, align 8
  %55 = getelementptr inbounds i8, ptr %49, i64 24
  %56 = load i64, ptr %55, align 8
  %57 = sub i64 %54, %56
  %58 = icmp ugt i64 %57, 3
  br i1 %58, label %59, label %65

59:                                               ; preds = %_ZN18AbstractDumpWriter8write_u4Ej.exit
  %60 = getelementptr inbounds i8, ptr %49, i64 8
  %61 = load ptr, ptr %60, align 8
  %62 = getelementptr inbounds i8, ptr %61, i64 %56
  store i32 %52, ptr %62, align 1
  %63 = load i64, ptr %55, align 8
  %64 = add i64 %63, 4
  store i64 %64, ptr %55, align 8
  br label %_ZN18AbstractDumpWriter8write_u4Ej.exit4

65:                                               ; preds = %_ZN18AbstractDumpWriter8write_u4Ej.exit
  %66 = load ptr, ptr %49, align 8
  %67 = getelementptr inbounds i8, ptr %66, i64 16
  %68 = load ptr, ptr %67, align 8
  call void %68(ptr noundef nonnull align 8 dereferenceable(34) %49, ptr noundef nonnull %3, i64 noundef 4) #19
  br label %_ZN18AbstractDumpWriter8write_u4Ej.exit4

_ZN18AbstractDumpWriter8write_u4Ej.exit4:         ; preds = %59, %65
  call void @llvm.lifetime.end.p0(i64 4, ptr nonnull %3)
  br label %69

69:                                               ; preds = %_ZN18AbstractDumpWriter8write_u4Ej.exit4, %2
  ret void
}